; Function Attrs: nounwind uwtable
define noalias noundef ptr @Mpm_ManFindMappedNodes(ptr noundef readonly captures(none) %0) local_unnamed_addr #0 {
  %2 = tail call noalias dereferenceable_or_null(16) ptr @malloc(i64 noundef 16) #9
  %3 = getelementptr inbounds nuw i8, ptr %2, i64 4
  store i32 0, ptr %3, align 4
  store i32 1000, ptr %2, align 8
  %4 = tail call noalias dereferenceable_or_null(4000) ptr @malloc(i64 noundef 4000) #9
  %5 = getelementptr inbounds nuw i8, ptr %2, i64 8
  store ptr %4, ptr %5, align 8
  %6 = load ptr, ptr %0, align 8
  %7 = getelementptr inbounds nuw i8, ptr %6, i64 80
  store i32 0, ptr %7, align 8
  %8 = load ptr, ptr %0, align 8
  %9 = getelementptr inbounds nuw i8, ptr %8, i64 80
  %10 = load i32, ptr %9, align 8
  %11 = getelementptr i8, ptr %8, i64 28
  %.val27 = load i32, ptr %11, align 4
  %12 = icmp slt i32 %10, %.val27
  br i1 %12, label %.lr.ph29, label %.critedge

.lr.ph29:                                         ; preds = %1
  %13 = getelementptr i8, ptr %0, i64 11392
  br label %14

14:                                               ; preds = %.lr.ph29, %._crit_edge
  %15 = phi i32 [ %10, %.lr.ph29 ], [ %73, %._crit_edge ]
  %16 = phi ptr [ %8, %.lr.ph29 ], [ %71, %._crit_edge ]
  %17 = getelementptr i8, ptr %16, i64 32
  %.val19 = load ptr, ptr %17, align 8
  %18 = sext i32 %15 to i64
  %19 = getelementptr inbounds ptr, ptr %.val19, i64 %18
  %20 = load ptr, ptr %19, align 8
  %21 = getelementptr inbounds nuw i8, ptr %16, i64 72
  store ptr %20, ptr %21, align 8
  %.not = icmp eq ptr %20, null
  br i1 %.not, label %.critedge, label %22

22:                                               ; preds = %14
  %23 = load ptr, ptr %0, align 8
  %24 = getelementptr inbounds nuw i8, ptr %23, i64 72
  %25 = load ptr, ptr %24, align 8
  %26 = getelementptr i8, ptr %25, i64 12
  %.0.val24 = load i32, ptr %26, align 4
  %27 = icmp ult i32 %.0.val24, -2
  br i1 %27, label %.lr.ph, label %._crit_edge

.lr.ph:                                           ; preds = %22, %63
  %.0.val26 = phi i32 [ %.0.val, %63 ], [ %.0.val24, %22 ]
  %.025 = phi ptr [ %64, %63 ], [ %25, %22 ]
  %28 = getelementptr i8, ptr %.025, i64 4
  %.0.val20 = load i32, ptr %28, align 4
  %29 = icmp ugt i32 %.0.val20, -3
  br i1 %29, label %63, label %30

30:                                               ; preds = %.lr.ph
  %.val22 = load ptr, ptr %13, align 8
  %31 = lshr i32 %.0.val26, 1
  %32 = zext nneg i32 %31 to i64
  %33 = getelementptr inbounds nuw i32, ptr %.val22, i64 %32
  %34 = load i32, ptr %33, align 4
  %.not18 = icmp eq i32 %34, 0
  br i1 %.not18, label %63, label %35

35:                                               ; preds = %30
  %36 = load i32, ptr %3, align 4
  %37 = load i32, ptr %2, align 8
  %38 = icmp eq i32 %36, %37
  br i1 %38, label %39, label %.Vec_IntGrow.exit10_crit_edge.i

.Vec_IntGrow.exit10_crit_edge.i:                  ; preds = %35
  %.pre.i = load ptr, ptr %5, align 8
  br label %Vec_IntPush.exit

39:                                               ; preds = %35
  %40 = icmp slt i32 %36, 16
  br i1 %40, label %41, label %48

41:                                               ; preds = %39
  %42 = load ptr, ptr %5, align 8
  %.not9.i.i = icmp eq ptr %42, null
  br i1 %.not9.i.i, label %45, label %43

43:                                               ; preds = %41
  %44 = tail call dereferenceable_or_null(64) ptr @realloc(ptr noundef nonnull %42, i64 noundef 64) #12
  br label %Vec_IntGrow.exit.i

45:                                               ; preds = %41
  %46 = tail call noalias dereferenceable_or_null(64) ptr @malloc(i64 noundef 64) #9
  br label %Vec_IntGrow.exit.i

Vec_IntGrow.exit.i:                               ; preds = %45, %43
  %47 = phi ptr [ %44, %43 ], [ %46, %45 ]
  store ptr %47, ptr %5, align 8
  store i32 16, ptr %2, align 8
  br label %Vec_IntPush.exit

48:                                               ; preds = %39
  %49 = shl nuw nsw i32 %36, 1
  %50 = load ptr, ptr %5, align 8
  %.not9.i9.i = icmp eq ptr %50, null
  %51 = zext nneg i32 %49 to i64
  %52 = shl nuw nsw i64 %51, 2
  br i1 %.not9.i9.i, label %55, label %53

53:                                               ; preds = %48
  %54 = tail call ptr @realloc(ptr noundef nonnull %50, i64 noundef %52) #12
  br label %57

55:                                               ; preds = %48
  %56 = tail call noalias ptr @malloc(i64 noundef %52) #9
  br label %57

57:                                               ; preds = %55, %53
  %58 = phi ptr [ %54, %53 ], [ %56, %55 ]
  store ptr %58, ptr %5, align 8
  store i32 %49, ptr %2, align 8
  br label %Vec_IntPush.exit

Vec_IntPush.exit:                                 ; preds = %.Vec_IntGrow.exit10_crit_edge.i, %Vec_IntGrow.exit.i, %57
  %59 = phi ptr [ %.pre.i, %.Vec_IntGrow.exit10_crit_edge.i ], [ %58, %57 ], [ %47, %Vec_IntGrow.exit.i ]
  %60 = add nsw i32 %36, 1
  store i32 %60, ptr %3, align 4
  %61 = sext i32 %36 to i64
  %62 = getelementptr inbounds i32, ptr %59, i64 %61
  store i32 %31, ptr %62, align 4
  br label %63

63:                                               ; preds = %.lr.ph, %30, %Vec_IntPush.exit
  %64 = getelementptr inbounds nuw i8, ptr %.025, i64 16
  %65 = getelementptr i8, ptr %.025, i64 28
  %.0.val = load i32, ptr %65, align 4
  %66 = icmp ult i32 %.0.val, -2
  br i1 %66, label %.lr.ph, label %._crit_edge.loopexit, !llvm.loop !7

._crit_edge.loopexit:                             ; preds = %63
  %.pre = load ptr, ptr %0, align 8
  br label %._crit_edge

._crit_edge:                                      ; preds = %._crit_edge.loopexit, %22
  %67 = phi ptr [ %.pre, %._crit_edge.loopexit ], [ %23, %22 ]
  %68 = getelementptr inbounds nuw i8, ptr %67, i64 80
  %69 = load i32, ptr %68, align 8
  %70 = add nsw i32 %69, 1
  store i32 %70, ptr %68, align 8
  %71 = load ptr, ptr %0, align 8
  %72 = getelementptr inbounds nuw i8, ptr %71, i64 80
  %73 = load i32, ptr %72, align 8
  %74 = getelementptr i8, ptr %71, i64 28
  %.val = load i32, ptr %74, align 4
  %75 = icmp slt i32 %73, %.val
  br i1 %75, label %14, label %.critedge, !llvm.loop !8

.critedge:                                        ; preds = %14, %._crit_edge, %1
  ret ptr %2
}